target datalayout = "e-m:e-p270:32:32-p271:32:32-p272:64:64-i64:64-i128:128-f80:128-n8:16:32:64-S128"
target triple = "x86_64-pc-linux-gnu"

@hf_control_cs_ind_config_id = internal global i32 0, align 4
@hf_control_cs_ind_rfu1 = internal global i32 0, align 4
@hf_control_cs_ind_conn_event_count = internal global i32 0, align 4
@hf_control_cs_ind_offset = internal global i32 0, align 4
@hf_control_cs_ind_event_interval = internal global i32 0, align 4
@hf_control_cs_ind_subevents_per_event = internal global i32 0, align 4
@hf_control_cs_ind_subevent_interval = internal global i32 0, align 4
@hf_control_cs_ind_subevent_len = internal global i32 0, align 4
@hf_control_cs_ind_aci = internal global i32 0, align 4
@hf_control_cs_ind_phy = internal global i32 0, align 4
@hf_control_cs_ind_pwr_delta = internal global i32 0, align 4
@hf_control_cs_ind_rfu2 = internal global i32 0, align 4

; Function Attrs: null_pointer_is_valid sspstrong uwtable
define internal i32 @dissect_cs_ind(ptr noundef %0, ptr noundef %1, i32 noundef %2) #0 {
  %4 = alloca ptr, align 8
  %5 = alloca ptr, align 8
  %6 = alloca i32, align 4
  store ptr %0, ptr %4, align 8
  store ptr %1, ptr %5, align 8
  store i32 %2, ptr %6, align 4
  %7 = load ptr, ptr %5, align 8
  %8 = load i32, ptr @hf_control_cs_ind_config_id, align 4
  %9 = load ptr, ptr %4, align 8
  %10 = load i32, ptr %6, align 4
  %11 = call ptr @proto_tree_add_item(ptr noundef %7, i32 noundef %8, ptr noundef %9, i32 noundef %10, i32 noundef 1, i32 noundef -2147483648)
  %12 = load ptr, ptr %5, align 8
  %13 = load i32, ptr @hf_control_cs_ind_rfu1, align 4
  %14 = load ptr, ptr %4, align 8
  %15 = load i32, ptr %6, align 4
  %16 = call ptr @proto_tree_add_item(ptr noundef %12, i32 noundef %13, ptr noundef %14, i32 noundef %15, i32 noundef 1, i32 noundef -2147483648)
  %17 = load i32, ptr %6, align 4
  %18 = add i32 %17, 1
  store i32 %18, ptr %6, align 4
  %19 = load ptr, ptr %5, align 8
  %20 = load i32, ptr @hf_control_cs_ind_conn_event_count, align 4
  %21 = load ptr, ptr %4, align 8
  %22 = load i32, ptr %6, align 4
  %23 = call ptr @proto_tree_add_item(ptr noundef %19, i32 noundef %20, ptr noundef %21, i32 noundef %22, i32 noundef 2, i32 noundef -2147483648)
  %24 = load i32, ptr %6, align 4
  %25 = add i32 %24, 2
  store i32 %25, ptr %6, align 4
  %26 = load ptr, ptr %5, align 8
  %27 = load i32, ptr @hf_control_cs_ind_offset, align 4
  %28 = load ptr, ptr %4, align 8
  %29 = load i32, ptr %6, align 4
  %30 = call ptr @proto_tree_add_item(ptr noundef %26, i32 noundef %27, ptr noundef %28, i32 noundef %29, i32 noundef 3, i32 noundef -2147483648)
  %31 = load i32, ptr %6, align 4
  %32 = add i32 %31, 3
  store i32 %32, ptr %6, align 4
  %33 = load ptr, ptr %5, align 8
  %34 = load i32, ptr @hf_control_cs_ind_event_interval, align 4
  %35 = load ptr, ptr %4, align 8
  %36 = load i32, ptr %6, align 4
  %37 = call ptr @proto_tree_add_item(ptr noundef %33, i32 noundef %34, ptr noundef %35, i32 noundef %36, i32 noundef 2, i32 noundef -2147483648)
  %38 = load i32, ptr %6, align 4
  %39 = add i32 %38, 2
  store i32 %39, ptr %6, align 4
  %40 = load ptr, ptr %5, align 8
  %41 = load i32, ptr @hf_control_cs_ind_subevents_per_event, align 4
  %42 = load ptr, ptr %4, align 8
  %43 = load i32, ptr %6, align 4
  %44 = call ptr @proto_tree_add_item(ptr noundef %40, i32 noundef %41, ptr noundef %42, i32 noundef %43, i32 noundef 1, i32 noundef -2147483648)
  %45 = load i32, ptr %6, align 4
  %46 = add i32 %45, 1
  store i32 %46, ptr %6, align 4
  %47 = load ptr, ptr %5, align 8
  %48 = load i32, ptr @hf_control_cs_ind_subevent_interval, align 4
  %49 = load ptr, ptr %4, align 8
  %50 = load i32, ptr %6, align 4
  %51 = call ptr @proto_tree_add_item(ptr noundef %47, i32 noundef %48, ptr noundef %49, i32 noundef %50, i32 noundef 2, i32 noundef -2147483648)
  %52 = load i32, ptr %6, align 4
  %53 = add i32 %52, 2
  store i32 %53, ptr %6, align 4
  %54 = load ptr, ptr %5, align 8
  %55 = load i32, ptr @hf_control_cs_ind_subevent_len, align 4
  %56 = load ptr, ptr %4, align 8
  %57 = load i32, ptr %6, align 4
  %58 = call ptr @proto_tree_add_item(ptr noundef %54, i32 noundef %55, ptr noundef %56, i32 noundef %57, i32 noundef 3, i32 noundef -2147483648)
  %59 = load i32, ptr %6, align 4
  %60 = add i32 %59, 3
  store i32 %60, ptr %6, align 4
  %61 = load ptr, ptr %5, align 8
  %62 = load i32, ptr @hf_control_cs_ind_aci, align 4
  %63 = load ptr, ptr %4, align 8
  %64 = load i32, ptr %6, align 4
  %65 = call ptr @proto_tree_add_item(ptr noundef %61, i32 noundef %62, ptr noundef %63, i32 noundef %64, i32 noundef 1, i32 noundef -2147483648)
  %66 = load i32, ptr %6, align 4
  %67 = add i32 %66, 1
  store i32 %67, ptr %6, align 4
  %68 = load ptr, ptr %5, align 8
  %69 = load i32, ptr @hf_control_cs_ind_phy, align 4
  %70 = load ptr, ptr %4, align 8
  %71 = load i32, ptr %6, align 4
  %72 = call ptr @proto_tree_add_item(ptr noundef %68, i32 noundef %69, ptr noundef %70, i32 noundef %71, i32 noundef 1, i32 noundef -2147483648)
  %73 = load i32, ptr %6, align 4
  %74 = add i32 %73, 1
  store i32 %74, ptr %6, align 4
  %75 = load ptr, ptr %5, align 8
  %76 = load i32, ptr @hf_control_cs_ind_pwr_delta, align 4
  %77 = load ptr, ptr %4, align 8
  %78 = load i32, ptr %6, align 4
  %79 = call ptr @proto_tree_add_item(ptr noundef %75, i32 noundef %76, ptr noundef %77, i32 noundef %78, i32 noundef 1, i32 noundef -2147483648)
  %80 = load i32, ptr %6, align 4
  %81 = add i32 %80, 1
  store i32 %81, ptr %6, align 4
  %82 = load ptr, ptr %5, align 8
  %83 = load i32, ptr @hf_control_cs_ind_rfu2, align 4
  %84 = load ptr, ptr %4, align 8
  %85 = load i32, ptr %6, align 4
  %86 = call ptr @proto_tree_add_item(ptr noundef %82, i32 noundef %83, ptr noundef %84, i32 noundef %85, i32 noundef 1, i32 noundef -2147483648)
  %87 = load i32, ptr %6, align 4
  %88 = add i32 %87, 1
  store i32 %88, ptr %6, align 4
  %89 = load i32, ptr %6, align 4
  ret i32 %89
}