; Function Attrs: null_pointer_is_valid sspstrong uwtable
define internal fastcc range(i32 21, 23) i32 @dissect_cs_ind(ptr noundef %0, ptr noundef %1, i32 noundef range(i32 3, 5) %2) unnamed_addr #0 {
  %4 = load i32, ptr @hf_control_cs_ind_config_id, align 4
  %5 = tail call ptr @proto_tree_add_item(ptr noundef %1, i32 noundef %4, ptr noundef %0, i32 noundef %2, i32 noundef 1, i32 noundef -2147483648)
  %6 = load i32, ptr @hf_control_cs_ind_rfu1, align 4
  %7 = tail call ptr @proto_tree_add_item(ptr noundef %1, i32 noundef %6, ptr noundef %0, i32 noundef %2, i32 noundef 1, i32 noundef -2147483648)
  %8 = add nuw nsw i32 %2, 1
  %9 = load i32, ptr @hf_control_cs_ind_conn_event_count, align 4
  %10 = tail call ptr @proto_tree_add_item(ptr noundef %1, i32 noundef %9, ptr noundef %0, i32 noundef %8, i32 noundef 2, i32 noundef -2147483648)
  %11 = add nuw nsw i32 %2, 3
  %12 = load i32, ptr @hf_control_cs_ind_offset, align 4
  %13 = tail call ptr @proto_tree_add_item(ptr noundef %1, i32 noundef %12, ptr noundef %0, i32 noundef %11, i32 noundef 3, i32 noundef -2147483648)
  %14 = add nuw nsw i32 %2, 6
  %15 = load i32, ptr @hf_control_cs_ind_event_interval, align 4
  %16 = tail call ptr @proto_tree_add_item(ptr noundef %1, i32 noundef %15, ptr noundef %0, i32 noundef %14, i32 noundef 2, i32 noundef -2147483648)
  %17 = or disjoint i32 %2, 8
  %18 = load i32, ptr @hf_control_cs_ind_subevents_per_event, align 4
  %19 = tail call ptr @proto_tree_add_item(ptr noundef %1, i32 noundef %18, ptr noundef %0, i32 noundef %17, i32 noundef 1, i32 noundef -2147483648)
  %20 = add nuw nsw i32 %2, 9
  %21 = load i32, ptr @hf_control_cs_ind_subevent_interval, align 4
  %22 = tail call ptr @proto_tree_add_item(ptr noundef %1, i32 noundef %21, ptr noundef %0, i32 noundef %20, i32 noundef 2, i32 noundef -2147483648)
  %23 = add nuw nsw i32 %2, 11
  %24 = load i32, ptr @hf_control_cs_ind_subevent_len, align 4
  %25 = tail call ptr @proto_tree_add_item(ptr noundef %1, i32 noundef %24, ptr noundef %0, i32 noundef %23, i32 noundef 3, i32 noundef -2147483648)
  %26 = add nuw nsw i32 %2, 14
  %27 = load i32, ptr @hf_control_cs_ind_aci, align 4
  %28 = tail call ptr @proto_tree_add_item(ptr noundef %1, i32 noundef %27, ptr noundef %0, i32 noundef %26, i32 noundef 1, i32 noundef -2147483648)
  %29 = add nuw nsw i32 %2, 15
  %30 = load i32, ptr @hf_control_cs_ind_phy, align 4
  %31 = tail call ptr @proto_tree_add_item(ptr noundef %1, i32 noundef %30, ptr noundef %0, i32 noundef %29, i32 noundef 1, i32 noundef -2147483648)
  %32 = or disjoint i32 %2, 16
  %33 = load i32, ptr @hf_control_cs_ind_pwr_delta, align 4
  %34 = tail call ptr @proto_tree_add_item(ptr noundef %1, i32 noundef %33, ptr noundef %0, i32 noundef %32, i32 noundef 1, i32 noundef -2147483648)
  %35 = add nuw nsw i32 %2, 17
  %36 = load i32, ptr @hf_control_cs_ind_rfu2, align 4
  %37 = tail call ptr @proto_tree_add_item(ptr noundef %1, i32 noundef %36, ptr noundef %0, i32 noundef %35, i32 noundef 1, i32 noundef -2147483648)
  %38 = add nuw nsw i32 %2, 18
  ret i32 %38
}